target datalayout = "e-m:e-p270:32:32-p271:32:32-p272:64:64-i64:64-i128:128-f80:128-n8:16:32:64-S128"
target triple = "x86_64-pc-linux-gnu"

%struct.PJconsts = type { ptr, ptr, ptr, ptr, ptr, ptr, ptr, ptr, ptr, ptr, ptr, ptr, i32, ptr, ptr, ptr, ptr, ptr, ptr, ptr, ptr, double, double, double, double, double, double, double, double, double, double, double, double, double, double, double, double, double, double, double, double, double, double, i32, i32, i32, i32, i32, i32, i32, i32, i32, i32, i32, ptr, ptr, ptr, ptr, ptr, ptr, double, double, double, double, double, double, double, double, double, double, double, i32, [7 x double], i32, ptr, ptr, double, double, i32, [4 x i8], %"class.std::shared_ptr", i8, double, i8, %"class.std::__cxx11::basic_string", %"class.std::__cxx11::basic_string", %"class.std::__cxx11::basic_string", i8, %"class.std::vector", i32, %"class.std::vector.3", i32, i8, i8, i8, ptr }
%"class.std::shared_ptr" = type { %"class.std::__shared_ptr" }
%"class.std::__shared_ptr" = type { ptr, %"class.std::__shared_count" }
%"class.std::__shared_count" = type { ptr }
%"class.std::__cxx11::basic_string" = type { %"struct.std::__cxx11::basic_string<char>::_Alloc_hider", i64, %union.anon }
%"struct.std::__cxx11::basic_string<char>::_Alloc_hider" = type { ptr }
%union.anon = type { i64, [8 x i8] }
%"class.std::vector" = type { %"struct.std::_Vector_base" }
%"struct.std::_Vector_base" = type { %"struct.std::_Vector_base<osgeo::proj::operation::GridDescription, std::allocator<osgeo::proj::operation::GridDescription>>::_Vector_impl" }
%"struct.std::_Vector_base<osgeo::proj::operation::GridDescription, std::allocator<osgeo::proj::operation::GridDescription>>::_Vector_impl" = type { %"struct.std::_Vector_base<osgeo::proj::operation::GridDescription, std::allocator<osgeo::proj::operation::GridDescription>>::_Vector_impl_data" }
%"struct.std::_Vector_base<osgeo::proj::operation::GridDescription, std::allocator<osgeo::proj::operation::GridDescription>>::_Vector_impl_data" = type { ptr, ptr, ptr }
%"class.std::vector.3" = type { %"struct.std::_Vector_base.4" }
%"struct.std::_Vector_base.4" = type { %"struct.std::_Vector_base<PJCoordOperation, std::allocator<PJCoordOperation>>::_Vector_impl" }
%"struct.std::_Vector_base<PJCoordOperation, std::allocator<PJCoordOperation>>::_Vector_impl" = type { %"struct.std::_Vector_base<PJCoordOperation, std::allocator<PJCoordOperation>>::_Vector_impl_data" }
%"struct.std::_Vector_base<PJCoordOperation, std::allocator<PJCoordOperation>>::_Vector_impl_data" = type { ptr, ptr, ptr }
%"struct.(anonymous namespace)::pj_geos_data" = type { double, double, double, double, double, double, double, i32 }
%struct.PJ_LP = type { double, double }
%struct.PJ_XY = type { double, double }

; Function Attrs: mustprogress uwtable
define internal { double, double } @_ZL14geos_s_inverse5PJ_XYP8PJconsts(double %0, double %1, ptr noundef %2) #0 {
  %4 = alloca %struct.PJ_LP, align 8
  %5 = alloca %struct.PJ_XY, align 8
  %6 = alloca ptr, align 8
  %7 = alloca ptr, align 8
  %8 = alloca double, align 8
  %9 = alloca double, align 8
  %10 = alloca double, align 8
  %11 = alloca double, align 8
  %12 = alloca double, align 8
  %13 = alloca double, align 8
  %14 = alloca double, align 8
  %15 = alloca i32, align 4
  %16 = getelementptr inbounds nuw { double, double }, ptr %5, i32 0, i32 0
  store double %0, ptr %16, align 8
  %17 = getelementptr inbounds nuw { double, double }, ptr %5, i32 0, i32 1
  store double %1, ptr %17, align 8
  store ptr %2, ptr %6, align 8, !tbaa !3
  call void @llvm.memset.p0.i64(ptr align 8 %4, i8 0, i64 16, i1 false)
  call void @llvm.lifetime.start.p0(i64 8, ptr %7) #8
  %18 = load ptr, ptr %6, align 8, !tbaa !3
  %19 = getelementptr inbounds nuw %struct.PJconsts, ptr %18, i32 0, i32 11
  %20 = load ptr, ptr %19, align 8, !tbaa !43
  store ptr %20, ptr %7, align 8, !tbaa !41
  call void @llvm.lifetime.start.p0(i64 8, ptr %8) #8
  call void @llvm.lifetime.start.p0(i64 8, ptr %9) #8
  call void @llvm.lifetime.start.p0(i64 8, ptr %10) #8
  call void @llvm.lifetime.start.p0(i64 8, ptr %11) #8
  call void @llvm.lifetime.start.p0(i64 8, ptr %12) #8
  call void @llvm.lifetime.start.p0(i64 8, ptr %13) #8
  store double -1.000000e+00, ptr %8, align 8, !tbaa !64
  %21 = load ptr, ptr %7, align 8, !tbaa !41
  %22 = getelementptr inbounds nuw %"struct.(anonymous namespace)::pj_geos_data", ptr %21, i32 0, i32 7
  %23 = load i32, ptr %22, align 8, !tbaa !50
  %24 = icmp ne i32 %23, 0
  br i1 %24, label %25, label %45

25:                                               ; preds = %3
  %26 = getelementptr inbounds nuw %struct.PJ_XY, ptr %5, i32 0, i32 1
  %27 = load double, ptr %26, align 8, !tbaa !65
  %28 = load ptr, ptr %7, align 8, !tbaa !41
  %29 = getelementptr inbounds nuw %"struct.(anonymous namespace)::pj_geos_data", ptr %28, i32 0, i32 5
  %30 = load double, ptr %29, align 8, !tbaa !52
  %31 = fdiv double %27, %30
  %32 = call double @tan(double noundef %31) #8, !tbaa !57
  store double %32, ptr %10, align 8, !tbaa !64
  %33 = getelementptr inbounds nuw %struct.PJ_XY, ptr %5, i32 0, i32 0
  %34 = load double, ptr %33, align 8, !tbaa !67
  %35 = load ptr, ptr %7, align 8, !tbaa !41
  %36 = getelementptr inbounds nuw %"struct.(anonymous namespace)::pj_geos_data", ptr %35, i32 0, i32 5
  %37 = load double, ptr %36, align 8, !tbaa !52
  %38 = fdiv double %34, %37
  %39 = call double @tan(double noundef %38) #8, !tbaa !57
  %40 = load double, ptr %10, align 8, !tbaa !64
  %41 = load double, ptr %10, align 8, !tbaa !64
  %42 = call double @llvm.fmuladd.f64(double %40, double %41, double 1.000000e+00)
  %43 = call double @sqrt(double noundef %42) #8, !tbaa !57
  %44 = fmul double %39, %43
  store double %44, ptr %9, align 8, !tbaa !64
  br label %65

45:                                               ; preds = %3
  %46 = getelementptr inbounds nuw %struct.PJ_XY, ptr %5, i32 0, i32 0
  %47 = load double, ptr %46, align 8, !tbaa !67
  %48 = load ptr, ptr %7, align 8, !tbaa !41
  %49 = getelementptr inbounds nuw %"struct.(anonymous namespace)::pj_geos_data", ptr %48, i32 0, i32 5
  %50 = load double, ptr %49, align 8, !tbaa !52
  %51 = fdiv double %47, %50
  %52 = call double @tan(double noundef %51) #8, !tbaa !57
  store double %52, ptr %9, align 8, !tbaa !64
  %53 = getelementptr inbounds nuw %struct.PJ_XY, ptr %5, i32 0, i32 1
  %54 = load double, ptr %53, align 8, !tbaa !65
  %55 = load ptr, ptr %7, align 8, !tbaa !41
  %56 = getelementptr inbounds nuw %"struct.(anonymous namespace)::pj_geos_data", ptr %55, i32 0, i32 5
  %57 = load double, ptr %56, align 8, !tbaa !52
  %58 = fdiv double %54, %57
  %59 = call double @tan(double noundef %58) #8, !tbaa !57
  %60 = load double, ptr %9, align 8, !tbaa !64
  %61 = load double, ptr %9, align 8, !tbaa !64
  %62 = call double @llvm.fmuladd.f64(double %60, double %61, double 1.000000e+00)
  %63 = call double @sqrt(double noundef %62) #8, !tbaa !57
  %64 = fmul double %59, %63
  store double %64, ptr %10, align 8, !tbaa !64
  br label %65

65:                                               ; preds = %45, %25
  %66 = load double, ptr %9, align 8, !tbaa !64
  %67 = load double, ptr %9, align 8, !tbaa !64
  %68 = load double, ptr %10, align 8, !tbaa !64
  %69 = load double, ptr %10, align 8, !tbaa !64
  %70 = fmul double %68, %69
  %71 = call double @llvm.fmuladd.f64(double %66, double %67, double %70)
  %72 = load double, ptr %8, align 8, !tbaa !64
  %73 = load double, ptr %8, align 8, !tbaa !64
  %74 = call double @llvm.fmuladd.f64(double %72, double %73, double %71)
  store double %74, ptr %11, align 8, !tbaa !64
  %75 = load ptr, ptr %7, align 8, !tbaa !41
  %76 = getelementptr inbounds nuw %"struct.(anonymous namespace)::pj_geos_data", ptr %75, i32 0, i32 4
  %77 = load double, ptr %76, align 8, !tbaa !53
  %78 = fmul double 2.000000e+00, %77
  %79 = load double, ptr %8, align 8, !tbaa !64
  %80 = fmul double %78, %79
  store double %80, ptr %12, align 8, !tbaa !64
  call void @llvm.lifetime.start.p0(i64 8, ptr %14) #8
  %81 = load double, ptr %12, align 8, !tbaa !64
  %82 = load double, ptr %12, align 8, !tbaa !64
  %83 = load double, ptr %11, align 8, !tbaa !64
  %84 = fmul double 4.000000e+00, %83
  %85 = load ptr, ptr %7, align 8, !tbaa !41
  %86 = getelementptr inbounds nuw %"struct.(anonymous namespace)::pj_geos_data", ptr %85, i32 0, i32 6
  %87 = load double, ptr %86, align 8, !tbaa !54
  %88 = fmul double %84, %87
  %89 = fneg double %88
  %90 = call double @llvm.fmuladd.f64(double %81, double %82, double %89)
  store double %90, ptr %14, align 8, !tbaa !64
  %91 = load double, ptr %14, align 8, !tbaa !64
  %92 = fcmp olt double %91, 0.000000e+00
  br i1 %92, label %93, label %96

93:                                               ; preds = %65
  %94 = load ptr, ptr %6, align 8, !tbaa !3
  %95 = call i32 @proj_errno_set(ptr noundef %94, i32 noundef 2050)
  store i32 1, ptr %15, align 4
  br label %130

96:                                               ; preds = %65
  %97 = load double, ptr %12, align 8, !tbaa !64
  %98 = fneg double %97
  %99 = load double, ptr %14, align 8, !tbaa !64
  %100 = call double @sqrt(double noundef %99) #8, !tbaa !57
  %101 = fsub double %98, %100
  %102 = load double, ptr %11, align 8, !tbaa !64
  %103 = fmul double 2.000000e+00, %102
  %104 = fdiv double %101, %103
  store double %104, ptr %13, align 8, !tbaa !64
  %105 = load ptr, ptr %7, align 8, !tbaa !41
  %106 = getelementptr inbounds nuw %"struct.(anonymous namespace)::pj_geos_data", ptr %105, i32 0, i32 4
  %107 = load double, ptr %106, align 8, !tbaa !53
  %108 = load double, ptr %13, align 8, !tbaa !64
  %109 = load double, ptr %8, align 8, !tbaa !64
  %110 = call double @llvm.fmuladd.f64(double %108, double %109, double %107)
  store double %110, ptr %8, align 8, !tbaa !64
  %111 = load double, ptr %13, align 8, !tbaa !64
  %112 = load double, ptr %9, align 8, !tbaa !64
  %113 = fmul double %112, %111
  store double %113, ptr %9, align 8, !tbaa !64
  %114 = load double, ptr %13, align 8, !tbaa !64
  %115 = load double, ptr %10, align 8, !tbaa !64
  %116 = fmul double %115, %114
  store double %116, ptr %10, align 8, !tbaa !64
  %117 = load double, ptr %9, align 8, !tbaa !64
  %118 = load double, ptr %8, align 8, !tbaa !64
  %119 = call double @atan2(double noundef %117, double noundef %118) #8, !tbaa !57
  %120 = getelementptr inbounds nuw %struct.PJ_LP, ptr %4, i32 0, i32 0
  store double %119, ptr %120, align 8, !tbaa !68
  %121 = load double, ptr %10, align 8, !tbaa !64
  %122 = getelementptr inbounds nuw %struct.PJ_LP, ptr %4, i32 0, i32 0
  %123 = load double, ptr %122, align 8, !tbaa !68
  %124 = call double @cos(double noundef %123) #8, !tbaa !57
  %125 = fmul double %121, %124
  %126 = load double, ptr %8, align 8, !tbaa !64
  %127 = fdiv double %125, %126
  %128 = call double @atan(double noundef %127) #8, !tbaa !57
  %129 = getelementptr inbounds nuw %struct.PJ_LP, ptr %4, i32 0, i32 1
  store double %128, ptr %129, align 8, !tbaa !70
  store i32 1, ptr %15, align 4
  br label %130

130:                                              ; preds = %96, %93
  call void @llvm.lifetime.end.p0(i64 8, ptr %14) #8
  call void @llvm.lifetime.end.p0(i64 8, ptr %13) #8
  call void @llvm.lifetime.end.p0(i64 8, ptr %12) #8
  call void @llvm.lifetime.end.p0(i64 8, ptr %11) #8
  call void @llvm.lifetime.end.p0(i64 8, ptr %10) #8
  call void @llvm.lifetime.end.p0(i64 8, ptr %9) #8
  call void @llvm.lifetime.end.p0(i64 8, ptr %8) #8
  call void @llvm.lifetime.end.p0(i64 8, ptr %7) #8
  %131 = load { double, double }, ptr %4, align 8
  ret { double, double } %131
}