; Function Attrs: mustprogress uwtable
define internal { double, double } @_ZL14geos_s_inverse5PJ_XYP8PJconsts(double %0, double %1, ptr noundef %2) #0 {
  %4 = getelementptr inbounds nuw i8, ptr %2, i64 88
  %5 = load ptr, ptr %4, align 8, !tbaa !40
  %6 = getelementptr inbounds nuw i8, ptr %5, i64 56
  %7 = load i32, ptr %6, align 8, !tbaa !45
  %.not = icmp eq i32 %7, 0
  %8 = getelementptr inbounds nuw i8, ptr %5, i64 40
  %9 = load double, ptr %8, align 8, !tbaa !48
  br i1 %.not, label %17, label %10

10:                                               ; preds = %3
  %11 = fdiv double %1, %9
  %12 = tail call double @tan(double noundef %11) #8, !tbaa !53
  %13 = fdiv double %0, %9
  %14 = tail call double @tan(double noundef %13) #8, !tbaa !53
  %15 = tail call double @llvm.fmuladd.f64(double %12, double %12, double 1.000000e+00)
  %sqrt = tail call double @llvm.sqrt.f64(double %15)
  %16 = fmul double %14, %sqrt
  br label %24

17:                                               ; preds = %3
  %18 = fdiv double %0, %9
  %19 = tail call double @tan(double noundef %18) #8, !tbaa !53
  %20 = fdiv double %1, %9
  %21 = tail call double @tan(double noundef %20) #8, !tbaa !53
  %22 = tail call double @llvm.fmuladd.f64(double %19, double %19, double 1.000000e+00)
  %sqrt43 = tail call double @llvm.sqrt.f64(double %22)
  %23 = fmul double %21, %sqrt43
  br label %24

24:                                               ; preds = %17, %10
  %.041 = phi double [ %12, %10 ], [ %23, %17 ]
  %.0 = phi double [ %16, %10 ], [ %19, %17 ]
  %25 = fmul double %.041, %.041
  %26 = tail call double @llvm.fmuladd.f64(double %.0, double %.0, double %25)
  %27 = fadd double %26, 1.000000e+00
  %28 = getelementptr inbounds nuw i8, ptr %5, i64 32
  %29 = load double, ptr %28, align 8, !tbaa !49
  %30 = fmul double %29, -2.000000e+00
  %31 = fmul double %27, 4.000000e+00
  %32 = getelementptr inbounds nuw i8, ptr %5, i64 48
  %33 = load double, ptr %32, align 8, !tbaa !50
  %34 = fneg double %33
  %35 = fmul double %31, %34
  %36 = tail call double @llvm.fmuladd.f64(double %30, double %30, double %35)
  %37 = fcmp olt double %36, 0.000000e+00
  br i1 %37, label %38, label %40

38:                                               ; preds = %24
  %39 = tail call i32 @proj_errno_set(ptr noundef nonnull %2, i32 noundef 2050)
  br label %54

40:                                               ; preds = %24
  %41 = fneg double %30
  %42 = tail call double @sqrt(double noundef %36) #8, !tbaa !53
  %43 = fsub double %41, %42
  %44 = fmul double %27, 2.000000e+00
  %45 = fdiv double %43, %44
  %46 = fsub double %29, %45
  %47 = fmul double %.0, %45
  %48 = fmul double %.041, %45
  %49 = tail call double @atan2(double noundef %47, double noundef %46) #8, !tbaa !53
  %50 = tail call double @cos(double noundef %49) #8, !tbaa !53
  %51 = fmul double %50, %48
  %52 = fdiv double %51, %46
  %53 = tail call double @atan(double noundef %52) #8, !tbaa !53
  br label %54

54:                                               ; preds = %40, %38
  %.sroa.4.0 = phi double [ 0.000000e+00, %38 ], [ %53, %40 ]
  %.sroa.040.0 = phi double [ 0.000000e+00, %38 ], [ %49, %40 ]
  %.fca.0.insert = insertvalue { double, double } poison, double %.sroa.040.0, 0
  %.fca.1.insert = insertvalue { double, double } %.fca.0.insert, double %.sroa.4.0, 1
  ret { double, double } %.fca.1.insert
}